target datalayout = "e-m:e-p270:32:32-p271:32:32-p272:64:64-i64:64-i128:128-f80:128-n8:16:32:64-S128"
target triple = "x86_64-pc-linux-gnu"

%struct._Node = type { %union.anon }
%union.anon = type { %struct.StrNode }
%struct.StrNode = type { %struct.NodeBase, ptr, ptr, i32, i32, [24 x i8] }
%struct.NodeBase = type { i32 }
%struct.ConsAltNode = type { %struct.NodeBase, ptr, ptr }
%struct.QtfrNode = type { %struct.NodeBase, i32, ptr, i32, i32, i32, i32, ptr, ptr, i32 }
%struct.EncloseNode = type { %struct.NodeBase, i32, i32, i32, i32, i32, ptr, i64, i64, i32, i32 }
%struct.AnchorNode = type { %struct.NodeBase, i32, ptr, i32, i32 }

; Function Attrs: nounwind sspstrong uwtable
define internal i32 @subexp_recursive_check_trav(ptr noundef %0, ptr noundef %1) #0 {
  %3 = alloca i32, align 4
  %4 = alloca ptr, align 8
  %5 = alloca ptr, align 8
  %6 = alloca i32, align 4
  %7 = alloca i32, align 4
  %8 = alloca i32, align 4
  %9 = alloca i32, align 4
  %10 = alloca ptr, align 8
  %11 = alloca ptr, align 8
  store ptr %0, ptr %4, align 8, !tbaa !66
  store ptr %1, ptr %5, align 8, !tbaa !36
  call void @llvm.lifetime.start.p0(i64 4, ptr %6) #11
  call void @llvm.lifetime.start.p0(i64 4, ptr %7) #11
  store i32 0, ptr %7, align 4, !tbaa !7
  %12 = load ptr, ptr %4, align 8, !tbaa !66
  %13 = getelementptr inbounds nuw %struct._Node, ptr %12, i32 0, i32 0
  %14 = getelementptr inbounds nuw %struct.NodeBase, ptr %13, i32 0, i32 0
  %15 = load i32, ptr %14, align 8, !tbaa !38
  store i32 %15, ptr %6, align 4, !tbaa !7
  %16 = load i32, ptr %6, align 4, !tbaa !7
  switch i32 %16, label %133 [
    i32 8, label %17
    i32 9, label %17
    i32 5, label %45
    i32 7, label %66
    i32 6, label %79
  ]

17:                                               ; preds = %2, %2
  call void @llvm.lifetime.start.p0(i64 4, ptr %8) #11
  br label %18

18:                                               ; preds = %35, %17
  %19 = load ptr, ptr %4, align 8, !tbaa !66
  %20 = getelementptr inbounds nuw %struct._Node, ptr %19, i32 0, i32 0
  %21 = getelementptr inbounds nuw %struct.ConsAltNode, ptr %20, i32 0, i32 1
  %22 = load ptr, ptr %21, align 8, !tbaa !38
  %23 = load ptr, ptr %5, align 8, !tbaa !36
  %24 = call i32 @subexp_recursive_check_trav(ptr noundef %22, ptr noundef %23)
  store i32 %24, ptr %8, align 4, !tbaa !7
  %25 = load i32, ptr %8, align 4, !tbaa !7
  %26 = icmp eq i32 %25, 1
  br i1 %26, label %27, label %28

27:                                               ; preds = %18
  store i32 1, ptr %7, align 4, !tbaa !7
  br label %34

28:                                               ; preds = %18
  %29 = load i32, ptr %8, align 4, !tbaa !7
  %30 = icmp slt i32 %29, 0
  br i1 %30, label %31, label %33

31:                                               ; preds = %28
  %32 = load i32, ptr %8, align 4, !tbaa !7
  store i32 %32, ptr %3, align 4
  store i32 1, ptr %9, align 4
  br label %42

33:                                               ; preds = %28
  br label %34

34:                                               ; preds = %33, %27
  br label %35

35:                                               ; preds = %34
  %36 = load ptr, ptr %4, align 8, !tbaa !66
  %37 = getelementptr inbounds nuw %struct._Node, ptr %36, i32 0, i32 0
  %38 = getelementptr inbounds nuw %struct.ConsAltNode, ptr %37, i32 0, i32 2
  %39 = load ptr, ptr %38, align 8, !tbaa !38
  store ptr %39, ptr %4, align 8, !tbaa !66
  %40 = icmp ne ptr %39, null
  br i1 %40, label %18, label %41, !llvm.loop !109

41:                                               ; preds = %35
  store i32 0, ptr %9, align 4
  br label %42

42:                                               ; preds = %41, %31
  call void @llvm.lifetime.end.p0(i64 4, ptr %8) #11
  %43 = load i32, ptr %9, align 4
  switch i32 %43, label %136 [
    i32 0, label %44
  ]

44:                                               ; preds = %42
  br label %134

45:                                               ; preds = %2
  %46 = load ptr, ptr %4, align 8, !tbaa !66
  %47 = getelementptr inbounds nuw %struct._Node, ptr %46, i32 0, i32 0
  %48 = getelementptr inbounds nuw %struct.QtfrNode, ptr %47, i32 0, i32 2
  %49 = load ptr, ptr %48, align 8, !tbaa !38
  %50 = load ptr, ptr %5, align 8, !tbaa !36
  %51 = call i32 @subexp_recursive_check_trav(ptr noundef %49, ptr noundef %50)
  store i32 %51, ptr %7, align 4, !tbaa !7
  %52 = load ptr, ptr %4, align 8, !tbaa !66
  %53 = getelementptr inbounds nuw %struct._Node, ptr %52, i32 0, i32 0
  %54 = getelementptr inbounds nuw %struct.QtfrNode, ptr %53, i32 0, i32 4
  %55 = load i32, ptr %54, align 4, !tbaa !38
  %56 = icmp eq i32 %55, 0
  br i1 %56, label %57, label %65

57:                                               ; preds = %45
  %58 = load i32, ptr %7, align 4, !tbaa !7
  %59 = icmp eq i32 %58, 1
  br i1 %59, label %60, label %64

60:                                               ; preds = %57
  %61 = load ptr, ptr %4, align 8, !tbaa !66
  %62 = getelementptr inbounds nuw %struct._Node, ptr %61, i32 0, i32 0
  %63 = getelementptr inbounds nuw %struct.QtfrNode, ptr %62, i32 0, i32 9
  store i32 1, ptr %63, align 8, !tbaa !38
  br label %64

64:                                               ; preds = %60, %57
  br label %65

65:                                               ; preds = %64, %45
  br label %134

66:                                               ; preds = %2
  call void @llvm.lifetime.start.p0(i64 8, ptr %10) #11
  %67 = load ptr, ptr %4, align 8, !tbaa !66
  %68 = getelementptr inbounds nuw %struct._Node, ptr %67, i32 0, i32 0
  store ptr %68, ptr %10, align 8, !tbaa !36
  %69 = load ptr, ptr %10, align 8, !tbaa !36
  %70 = getelementptr inbounds nuw %struct.AnchorNode, ptr %69, i32 0, i32 1
  %71 = load i32, ptr %70, align 4, !tbaa !106
  switch i32 %71, label %78 [
    i32 1024, label %72
    i32 2048, label %72
    i32 4096, label %72
    i32 8192, label %72
  ]

72:                                               ; preds = %66, %66, %66, %66
  %73 = load ptr, ptr %10, align 8, !tbaa !36
  %74 = getelementptr inbounds nuw %struct.AnchorNode, ptr %73, i32 0, i32 2
  %75 = load ptr, ptr %74, align 8, !tbaa !108
  %76 = load ptr, ptr %5, align 8, !tbaa !36
  %77 = call i32 @subexp_recursive_check_trav(ptr noundef %75, ptr noundef %76)
  store i32 %77, ptr %7, align 4, !tbaa !7
  br label %78

78:                                               ; preds = %66, %72
  call void @llvm.lifetime.end.p0(i64 8, ptr %10) #11
  br label %134

79:                                               ; preds = %2
  call void @llvm.lifetime.start.p0(i64 8, ptr %11) #11
  %80 = load ptr, ptr %4, align 8, !tbaa !66
  %81 = getelementptr inbounds nuw %struct._Node, ptr %80, i32 0, i32 0
  store ptr %81, ptr %11, align 8, !tbaa !36
  %82 = load ptr, ptr %11, align 8, !tbaa !36
  %83 = getelementptr inbounds nuw %struct.EncloseNode, ptr %82, i32 0, i32 1
  %84 = load i32, ptr %83, align 4, !tbaa !110
  %85 = and i32 %84, 128
  %86 = icmp ne i32 %85, 0
  br i1 %86, label %118, label %87

87:                                               ; preds = %79
  %88 = load ptr, ptr %11, align 8, !tbaa !36
  %89 = getelementptr inbounds nuw %struct.EncloseNode, ptr %88, i32 0, i32 1
  %90 = load i32, ptr %89, align 4, !tbaa !110
  %91 = and i32 %90, 256
  %92 = icmp ne i32 %91, 0
  br i1 %92, label %93, label %117

93:                                               ; preds = %87
  %94 = load ptr, ptr %4, align 8, !tbaa !66
  %95 = getelementptr inbounds nuw %struct._Node, ptr %94, i32 0, i32 0
  %96 = getelementptr inbounds nuw %struct.EncloseNode, ptr %95, i32 0, i32 1
  %97 = load i32, ptr %96, align 4, !tbaa !38
  %98 = or i32 %97, 8
  store i32 %98, ptr %96, align 4, !tbaa !38
  %99 = load ptr, ptr %11, align 8, !tbaa !36
  %100 = getelementptr inbounds nuw %struct.EncloseNode, ptr %99, i32 0, i32 6
  %101 = load ptr, ptr %100, align 8, !tbaa !112
  %102 = call i32 @subexp_recursive_check(ptr noundef %101)
  store i32 %102, ptr %7, align 4, !tbaa !7
  %103 = load i32, ptr %7, align 4, !tbaa !7
  %104 = icmp ne i32 %103, 0
  br i1 %104, label %105, label %111

105:                                              ; preds = %93
  %106 = load ptr, ptr %4, align 8, !tbaa !66
  %107 = getelementptr inbounds nuw %struct._Node, ptr %106, i32 0, i32 0
  %108 = getelementptr inbounds nuw %struct.EncloseNode, ptr %107, i32 0, i32 1
  %109 = load i32, ptr %108, align 4, !tbaa !38
  %110 = or i32 %109, 128
  store i32 %110, ptr %108, align 4, !tbaa !38
  br label %111

111:                                              ; preds = %105, %93
  %112 = load ptr, ptr %4, align 8, !tbaa !66
  %113 = getelementptr inbounds nuw %struct._Node, ptr %112, i32 0, i32 0
  %114 = getelementptr inbounds nuw %struct.EncloseNode, ptr %113, i32 0, i32 1
  %115 = load i32, ptr %114, align 4, !tbaa !38
  %116 = and i32 %115, -9
  store i32 %116, ptr %114, align 4, !tbaa !38
  br label %117

117:                                              ; preds = %111, %87
  br label %118

118:                                              ; preds = %117, %79
  %119 = load ptr, ptr %11, align 8, !tbaa !36
  %120 = getelementptr inbounds nuw %struct.EncloseNode, ptr %119, i32 0, i32 6
  %121 = load ptr, ptr %120, align 8, !tbaa !112
  %122 = load ptr, ptr %5, align 8, !tbaa !36
  %123 = call i32 @subexp_recursive_check_trav(ptr noundef %121, ptr noundef %122)
  store i32 %123, ptr %7, align 4, !tbaa !7
  %124 = load ptr, ptr %11, align 8, !tbaa !36
  %125 = getelementptr inbounds nuw %struct.EncloseNode, ptr %124, i32 0, i32 1
  %126 = load i32, ptr %125, align 4, !tbaa !110
  %127 = and i32 %126, 256
  %128 = icmp ne i32 %127, 0
  br i1 %128, label %129, label %132

129:                                              ; preds = %118
  %130 = load i32, ptr %7, align 4, !tbaa !7
  %131 = or i32 %130, 1
  store i32 %131, ptr %7, align 4, !tbaa !7
  br label %132

132:                                              ; preds = %129, %118
  call void @llvm.lifetime.end.p0(i64 8, ptr %11) #11
  br label %134

133:                                              ; preds = %2
  br label %134

134:                                              ; preds = %133, %132, %78, %65, %44
  %135 = load i32, ptr %7, align 4, !tbaa !7
  store i32 %135, ptr %3, align 4
  store i32 1, ptr %9, align 4
  br label %136

136:                                              ; preds = %134, %42
  call void @llvm.lifetime.end.p0(i64 4, ptr %7) #11
  call void @llvm.lifetime.end.p0(i64 4, ptr %6) #11
  %137 = load i32, ptr %3, align 4
  ret i32 %137
}