; Function Attrs: nofree nosync nounwind sspstrong memory(readwrite, inaccessiblemem: none) uwtable
define internal fastcc range(i32 0, 2) i32 @subexp_recursive_check_trav(ptr noundef captures(none) %0) unnamed_addr #13 {
  br label %tailrecurse

tailrecurse:                                      ; preds = %24, %1
  %.tr = phi ptr [ %0, %1 ], [ %26, %24 ]
  %2 = load i32, ptr %.tr, align 8, !tbaa !34
  switch i32 %2, label %common.ret28 [
    i32 8, label %.preheader
    i32 9, label %.preheader
    i32 5, label %9
    i32 7, label %19
    i32 6, label %27
  ]

.preheader:                                       ; preds = %tailrecurse, %tailrecurse
  br label %3

3:                                                ; preds = %.preheader, %3
  %.034 = phi i32 [ %spec.select16, %3 ], [ 0, %.preheader ]
  %.032 = phi ptr [ %8, %3 ], [ %.tr, %.preheader ]
  %4 = getelementptr inbounds nuw i8, ptr %.032, i64 8
  %5 = load ptr, ptr %4, align 8, !tbaa !34
  %6 = tail call fastcc i32 @subexp_recursive_check_trav(ptr noundef %5)
  %.not = icmp eq i32 %6, 0
  %spec.select16 = select i1 %.not, i32 %.034, i32 1
  %7 = getelementptr inbounds nuw i8, ptr %.032, i64 16
  %8 = load ptr, ptr %7, align 8, !tbaa !34
  %.not41 = icmp eq ptr %8, null
  br i1 %.not41, label %common.ret28, label %3, !llvm.loop !140

9:                                                ; preds = %tailrecurse
  %10 = getelementptr inbounds nuw i8, ptr %.tr, i64 8
  %11 = load ptr, ptr %10, align 8, !tbaa !34
  %12 = tail call fastcc i32 @subexp_recursive_check_trav(ptr noundef %11)
  %13 = getelementptr inbounds nuw i8, ptr %.tr, i64 20
  %14 = load i32, ptr %13, align 4, !tbaa !34
  %15 = icmp eq i32 %14, 0
  %16 = icmp ne i32 %12, 0
  %or.cond = select i1 %15, i1 %16, i1 false
  br i1 %or.cond, label %17, label %common.ret28

17:                                               ; preds = %9
  %18 = getelementptr inbounds nuw i8, ptr %.tr, i64 48
  store i32 1, ptr %18, align 8, !tbaa !34
  br label %common.ret28

19:                                               ; preds = %tailrecurse
  %20 = getelementptr inbounds nuw i8, ptr %.tr, i64 4
  %21 = load i32, ptr %20, align 4, !tbaa !138
  %22 = add i32 %21, -1024
  %23 = tail call i32 @llvm.fshl.i32(i32 %22, i32 %22, i32 22)
  switch i32 %23, label %common.ret28 [
    i32 0, label %24
    i32 1, label %24
    i32 3, label %24
    i32 7, label %24
  ]

24:                                               ; preds = %19, %19, %19, %19
  %25 = getelementptr inbounds nuw i8, ptr %.tr, i64 8
  %26 = load ptr, ptr %25, align 8, !tbaa !141
  br label %tailrecurse

27:                                               ; preds = %tailrecurse
  %28 = getelementptr inbounds nuw i8, ptr %.tr, i64 4
  %29 = load i32, ptr %28, align 4, !tbaa !142
  %30 = and i32 %29, 384
  %or.cond42.not = icmp eq i32 %30, 256
  br i1 %or.cond42.not, label %31, label %41

31:                                               ; preds = %27
  %32 = or i32 %29, 8
  store i32 %32, ptr %28, align 4, !tbaa !34
  %33 = getelementptr inbounds nuw i8, ptr %.tr, i64 24
  %34 = load ptr, ptr %33, align 8, !tbaa !144
  %35 = tail call fastcc i32 @subexp_recursive_check(ptr noundef %34)
  %.not39 = icmp eq i32 %35, 0
  %.pre = load i32, ptr %28, align 4, !tbaa !34
  br i1 %.not39, label %38, label %36

36:                                               ; preds = %31
  %37 = or i32 %.pre, 128
  store i32 %37, ptr %28, align 4, !tbaa !34
  br label %38

38:                                               ; preds = %36, %31
  %39 = phi i32 [ %37, %36 ], [ %.pre, %31 ]
  %40 = and i32 %39, -9
  store i32 %40, ptr %28, align 4, !tbaa !34
  br label %41

common.ret28:                                     ; preds = %17, %9, %3, %tailrecurse, %19, %41
  %common.ret28.op = phi i32 [ %spec.select, %41 ], [ 1, %17 ], [ %12, %9 ], [ %spec.select16, %3 ], [ 0, %tailrecurse ], [ 0, %19 ]
  ret i32 %common.ret28.op

41:                                               ; preds = %38, %27
  %42 = getelementptr inbounds nuw i8, ptr %.tr, i64 24
  %43 = load ptr, ptr %42, align 8, !tbaa !144
  %44 = tail call fastcc i32 @subexp_recursive_check_trav(ptr noundef %43)
  %45 = load i32, ptr %28, align 4, !tbaa !142
  %46 = lshr i32 %45, 8
  %47 = and i32 %46, 1
  %spec.select = or i32 %47, %44
  br label %common.ret28
}